target datalayout = "e-m:e-p270:32:32-p271:32:32-p272:64:64-i64:64-i128:128-f80:128-n8:16:32:64-S128"
target triple = "x86_64-pc-linux-gnu"

%struct.AVFilterContext = type { ptr, ptr, ptr, ptr, ptr, i32, ptr, ptr, i32, ptr, ptr, i32, i32, ptr, ptr, ptr, ptr, i32, ptr, i32, i32 }
%struct.LagfunContext = type { ptr, float, i32, i32, i32, [4 x i32], [4 x i32], [4 x i32], [4 x ptr], [2 x ptr] }
%struct.ThreadData = type { ptr, ptr }
%struct.AVChannelLayout = type { i32, i32, %union.anon.1, ptr }
%union.anon.1 = type { i64 }
%struct.AVRational = type { i32, i32 }
%struct.AVFrame = type { [8 x ptr], [8 x i32], ptr, i32, i32, i32, i32, i32, %struct.AVRational, i64, i64, %struct.AVRational, i32, ptr, i32, i32, [8 x ptr], ptr, i32, ptr, i32, i32, i32, i32, i32, i32, i32, i64, ptr, i32, ptr, ptr, i64, i64, i64, i64, ptr, %struct.AVChannelLayout, i64 }

; Function Attrs: nounwind uwtable
define internal i32 @lagfun_frame32(ptr noundef %0, ptr noundef %1, i32 noundef %2, i32 noundef %3) #2 {
  %5 = alloca ptr, align 8
  %6 = alloca ptr, align 8
  %7 = alloca i32, align 4
  %8 = alloca i32, align 4
  %9 = alloca ptr, align 8
  %10 = alloca float, align 4
  %11 = alloca ptr, align 8
  %12 = alloca ptr, align 8
  %13 = alloca ptr, align 8
  %14 = alloca i32, align 4
  %15 = alloca i32, align 4
  %16 = alloca i32, align 4
  %17 = alloca i32, align 4
  %18 = alloca i32, align 4
  %19 = alloca ptr, align 8
  %20 = alloca ptr, align 8
  %21 = alloca ptr, align 8
  %22 = alloca i32, align 4
  %23 = alloca i32, align 4
  %24 = alloca float, align 4
  store ptr %0, ptr %5, align 8, !tbaa !4
  store ptr %1, ptr %6, align 8, !tbaa !49
  store i32 %2, ptr %7, align 4, !tbaa !24
  store i32 %3, ptr %8, align 4, !tbaa !24
  call void @llvm.lifetime.start.p0(i64 8, ptr %9) #7
  %25 = load ptr, ptr %5, align 8, !tbaa !4
  %26 = getelementptr inbounds nuw %struct.AVFilterContext, ptr %25, i32 0, i32 9
  %27 = load ptr, ptr %26, align 8, !tbaa !9
  store ptr %27, ptr %9, align 8, !tbaa !22
  call void @llvm.lifetime.start.p0(i64 4, ptr %10) #7
  %28 = load ptr, ptr %9, align 8, !tbaa !22
  %29 = getelementptr inbounds nuw %struct.LagfunContext, ptr %28, i32 0, i32 1
  %30 = load float, ptr %29, align 8, !tbaa !65
  store float %30, ptr %10, align 4, !tbaa !66
  call void @llvm.lifetime.start.p0(i64 8, ptr %11) #7
  %31 = load ptr, ptr %6, align 8, !tbaa !49
  store ptr %31, ptr %11, align 8, !tbaa !67
  call void @llvm.lifetime.start.p0(i64 8, ptr %12) #7
  %32 = load ptr, ptr %11, align 8, !tbaa !67
  %33 = getelementptr inbounds nuw %struct.ThreadData, ptr %32, i32 0, i32 0
  %34 = load ptr, ptr %33, align 8, !tbaa !47
  store ptr %34, ptr %12, align 8, !tbaa !32
  call void @llvm.lifetime.start.p0(i64 8, ptr %13) #7
  %35 = load ptr, ptr %11, align 8, !tbaa !67
  %36 = getelementptr inbounds nuw %struct.ThreadData, ptr %35, i32 0, i32 1
  %37 = load ptr, ptr %36, align 8, !tbaa !45
  store ptr %37, ptr %13, align 8, !tbaa !32
  call void @llvm.lifetime.start.p0(i64 4, ptr %14) #7
  store i32 0, ptr %14, align 4, !tbaa !24
  br label %38

38:                                               ; preds = %226, %4
  %39 = load i32, ptr %14, align 4, !tbaa !24
  %40 = load ptr, ptr %9, align 8, !tbaa !22
  %41 = getelementptr inbounds nuw %struct.LagfunContext, ptr %40, i32 0, i32 4
  %42 = load i32, ptr %41, align 4, !tbaa !25
  %43 = icmp slt i32 %39, %42
  br i1 %43, label %45, label %44

44:                                               ; preds = %38
  store i32 2, ptr %15, align 4
  call void @llvm.lifetime.end.p0(i64 4, ptr %14) #7
  br label %229

45:                                               ; preds = %38
  call void @llvm.lifetime.start.p0(i64 4, ptr %16) #7
  %46 = load ptr, ptr %9, align 8, !tbaa !22
  %47 = getelementptr inbounds nuw %struct.LagfunContext, ptr %46, i32 0, i32 7
  %48 = load i32, ptr %14, align 4, !tbaa !24
  %49 = sext i32 %48 to i64
  %50 = getelementptr inbounds [4 x i32], ptr %47, i64 0, i64 %49
  %51 = load i32, ptr %50, align 4, !tbaa !24
  %52 = load i32, ptr %7, align 4, !tbaa !24
  %53 = mul nsw i32 %51, %52
  %54 = load i32, ptr %8, align 4, !tbaa !24
  %55 = sdiv i32 %53, %54
  store i32 %55, ptr %16, align 4, !tbaa !24
  call void @llvm.lifetime.start.p0(i64 4, ptr %17) #7
  %56 = load ptr, ptr %9, align 8, !tbaa !22
  %57 = getelementptr inbounds nuw %struct.LagfunContext, ptr %56, i32 0, i32 7
  %58 = load i32, ptr %14, align 4, !tbaa !24
  %59 = sext i32 %58 to i64
  %60 = getelementptr inbounds [4 x i32], ptr %57, i64 0, i64 %59
  %61 = load i32, ptr %60, align 4, !tbaa !24
  %62 = load i32, ptr %7, align 4, !tbaa !24
  %63 = add nsw i32 %62, 1
  %64 = mul nsw i32 %61, %63
  %65 = load i32, ptr %8, align 4, !tbaa !24
  %66 = sdiv i32 %64, %65
  store i32 %66, ptr %17, align 4, !tbaa !24
  call void @llvm.lifetime.start.p0(i64 4, ptr %18) #7
  %67 = load ptr, ptr %9, align 8, !tbaa !22
  %68 = getelementptr inbounds nuw %struct.LagfunContext, ptr %67, i32 0, i32 6
  %69 = load i32, ptr %14, align 4, !tbaa !24
  %70 = sext i32 %69 to i64
  %71 = getelementptr inbounds [4 x i32], ptr %68, i64 0, i64 %70
  %72 = load i32, ptr %71, align 4, !tbaa !24
  store i32 %72, ptr %18, align 4, !tbaa !24
  call void @llvm.lifetime.start.p0(i64 8, ptr %19) #7
  %73 = load ptr, ptr %12, align 8, !tbaa !32
  %74 = getelementptr inbounds nuw %struct.AVFrame, ptr %73, i32 0, i32 0
  %75 = load i32, ptr %14, align 4, !tbaa !24
  %76 = sext i32 %75 to i64
  %77 = getelementptr inbounds [8 x ptr], ptr %74, i64 0, i64 %76
  %78 = load ptr, ptr %77, align 8, !tbaa !69
  %79 = load i32, ptr %16, align 4, !tbaa !24
  %80 = load ptr, ptr %12, align 8, !tbaa !32
  %81 = getelementptr inbounds nuw %struct.AVFrame, ptr %80, i32 0, i32 1
  %82 = load i32, ptr %14, align 4, !tbaa !24
  %83 = sext i32 %82 to i64
  %84 = getelementptr inbounds [8 x i32], ptr %81, i64 0, i64 %83
  %85 = load i32, ptr %84, align 4, !tbaa !24
  %86 = mul nsw i32 %79, %85
  %87 = sext i32 %86 to i64
  %88 = udiv i64 %87, 4
  %89 = getelementptr inbounds nuw float, ptr %78, i64 %88
  store ptr %89, ptr %19, align 8, !tbaa !62
  call void @llvm.lifetime.start.p0(i64 8, ptr %20) #7
  %90 = load ptr, ptr %9, align 8, !tbaa !22
  %91 = getelementptr inbounds nuw %struct.LagfunContext, ptr %90, i32 0, i32 8
  %92 = load i32, ptr %14, align 4, !tbaa !24
  %93 = sext i32 %92 to i64
  %94 = getelementptr inbounds [4 x ptr], ptr %91, i64 0, i64 %93
  %95 = load ptr, ptr %94, align 8, !tbaa !62
  %96 = load i32, ptr %16, align 4, !tbaa !24
  %97 = load ptr, ptr %9, align 8, !tbaa !22
  %98 = getelementptr inbounds nuw %struct.LagfunContext, ptr %97, i32 0, i32 6
  %99 = load i32, ptr %14, align 4, !tbaa !24
  %100 = sext i32 %99 to i64
  %101 = getelementptr inbounds [4 x i32], ptr %98, i64 0, i64 %100
  %102 = load i32, ptr %101, align 4, !tbaa !24
  %103 = mul nsw i32 %96, %102
  %104 = sext i32 %103 to i64
  %105 = getelementptr inbounds float, ptr %95, i64 %104
  store ptr %105, ptr %20, align 8, !tbaa !62
  call void @llvm.lifetime.start.p0(i64 8, ptr %21) #7
  %106 = load ptr, ptr %13, align 8, !tbaa !32
  %107 = getelementptr inbounds nuw %struct.AVFrame, ptr %106, i32 0, i32 0
  %108 = load i32, ptr %14, align 4, !tbaa !24
  %109 = sext i32 %108 to i64
  %110 = getelementptr inbounds [8 x ptr], ptr %107, i64 0, i64 %109
  %111 = load ptr, ptr %110, align 8, !tbaa !69
  %112 = load i32, ptr %16, align 4, !tbaa !24
  %113 = load ptr, ptr %13, align 8, !tbaa !32
  %114 = getelementptr inbounds nuw %struct.AVFrame, ptr %113, i32 0, i32 1
  %115 = load i32, ptr %14, align 4, !tbaa !24
  %116 = sext i32 %115 to i64
  %117 = getelementptr inbounds [8 x i32], ptr %114, i64 0, i64 %116
  %118 = load i32, ptr %117, align 4, !tbaa !24
  %119 = mul nsw i32 %112, %118
  %120 = sext i32 %119 to i64
  %121 = udiv i64 %120, 4
  %122 = getelementptr inbounds nuw float, ptr %111, i64 %121
  store ptr %122, ptr %21, align 8, !tbaa !62
  %123 = load i32, ptr %14, align 4, !tbaa !24
  %124 = shl i32 1, %123
  %125 = load ptr, ptr %9, align 8, !tbaa !22
  %126 = getelementptr inbounds nuw %struct.LagfunContext, ptr %125, i32 0, i32 2
  %127 = load i32, ptr %126, align 4, !tbaa !70
  %128 = and i32 %124, %127
  %129 = icmp ne i32 %128, 0
  br i1 %129, label %154, label %130

130:                                              ; preds = %45
  %131 = load ptr, ptr %21, align 8, !tbaa !62
  %132 = load ptr, ptr %13, align 8, !tbaa !32
  %133 = getelementptr inbounds nuw %struct.AVFrame, ptr %132, i32 0, i32 1
  %134 = load i32, ptr %14, align 4, !tbaa !24
  %135 = sext i32 %134 to i64
  %136 = getelementptr inbounds [8 x i32], ptr %133, i64 0, i64 %135
  %137 = load i32, ptr %136, align 4, !tbaa !24
  %138 = load ptr, ptr %19, align 8, !tbaa !62
  %139 = load ptr, ptr %12, align 8, !tbaa !32
  %140 = getelementptr inbounds nuw %struct.AVFrame, ptr %139, i32 0, i32 1
  %141 = load i32, ptr %14, align 4, !tbaa !24
  %142 = sext i32 %141 to i64
  %143 = getelementptr inbounds [8 x i32], ptr %140, i64 0, i64 %142
  %144 = load i32, ptr %143, align 4, !tbaa !24
  %145 = load ptr, ptr %9, align 8, !tbaa !22
  %146 = getelementptr inbounds nuw %struct.LagfunContext, ptr %145, i32 0, i32 5
  %147 = load i32, ptr %14, align 4, !tbaa !24
  %148 = sext i32 %147 to i64
  %149 = getelementptr inbounds [4 x i32], ptr %146, i64 0, i64 %148
  %150 = load i32, ptr %149, align 4, !tbaa !24
  %151 = load i32, ptr %17, align 4, !tbaa !24
  %152 = load i32, ptr %16, align 4, !tbaa !24
  %153 = sub nsw i32 %151, %152
  call void @av_image_copy_plane(ptr noundef %131, i32 noundef %137, ptr noundef %138, i32 noundef %144, i32 noundef %150, i32 noundef %153)
  store i32 4, ptr %15, align 4
  br label %223

154:                                              ; preds = %45
  call void @llvm.lifetime.start.p0(i64 4, ptr %22) #7
  %155 = load i32, ptr %16, align 4, !tbaa !24
  store i32 %155, ptr %22, align 4, !tbaa !24
  br label %156

156:                                              ; preds = %219, %154
  %157 = load i32, ptr %22, align 4, !tbaa !24
  %158 = load i32, ptr %17, align 4, !tbaa !24
  %159 = icmp slt i32 %157, %158
  br i1 %159, label %161, label %160

160:                                              ; preds = %156
  store i32 5, ptr %15, align 4
  call void @llvm.lifetime.end.p0(i64 4, ptr %22) #7
  br label %222

161:                                              ; preds = %156
  call void @llvm.lifetime.start.p0(i64 4, ptr %23) #7
  store i32 0, ptr %23, align 4, !tbaa !24
  br label %162

162:                                              ; preds = %191, %161
  %163 = load i32, ptr %23, align 4, !tbaa !24
  %164 = load i32, ptr %18, align 4, !tbaa !24
  %165 = icmp slt i32 %163, %164
  br i1 %165, label %167, label %166

166:                                              ; preds = %162
  store i32 8, ptr %15, align 4
  call void @llvm.lifetime.end.p0(i64 4, ptr %23) #7
  br label %194

167:                                              ; preds = %162
  call void @llvm.lifetime.start.p0(i64 4, ptr %24) #7
  %168 = load ptr, ptr %19, align 8, !tbaa !62
  %169 = load i32, ptr %23, align 4, !tbaa !24
  %170 = sext i32 %169 to i64
  %171 = getelementptr inbounds float, ptr %168, i64 %170
  %172 = load float, ptr %171, align 4, !tbaa !66
  %173 = load ptr, ptr %20, align 8, !tbaa !62
  %174 = load i32, ptr %23, align 4, !tbaa !24
  %175 = sext i32 %174 to i64
  %176 = getelementptr inbounds float, ptr %173, i64 %175
  %177 = load float, ptr %176, align 4, !tbaa !66
  %178 = load float, ptr %10, align 4, !tbaa !66
  %179 = fmul nsz float %177, %178
  %180 = call nsz float @llvm.maxnum.f32(float %172, float %179)
  store float %180, ptr %24, align 4, !tbaa !66
  %181 = load float, ptr %24, align 4, !tbaa !66
  %182 = load ptr, ptr %20, align 8, !tbaa !62
  %183 = load i32, ptr %23, align 4, !tbaa !24
  %184 = sext i32 %183 to i64
  %185 = getelementptr inbounds float, ptr %182, i64 %184
  store float %181, ptr %185, align 4, !tbaa !66
  %186 = load float, ptr %24, align 4, !tbaa !66
  %187 = load ptr, ptr %21, align 8, !tbaa !62
  %188 = load i32, ptr %23, align 4, !tbaa !24
  %189 = sext i32 %188 to i64
  %190 = getelementptr inbounds float, ptr %187, i64 %189
  store float %186, ptr %190, align 4, !tbaa !66
  call void @llvm.lifetime.end.p0(i64 4, ptr %24) #7
  br label %191

191:                                              ; preds = %167
  %192 = load i32, ptr %23, align 4, !tbaa !24
  %193 = add nsw i32 %192, 1
  store i32 %193, ptr %23, align 4, !tbaa !24
  br label %162, !llvm.loop !82

194:                                              ; preds = %166
  %195 = load ptr, ptr %12, align 8, !tbaa !32
  %196 = getelementptr inbounds nuw %struct.AVFrame, ptr %195, i32 0, i32 1
  %197 = load i32, ptr %14, align 4, !tbaa !24
  %198 = sext i32 %197 to i64
  %199 = getelementptr inbounds [8 x i32], ptr %196, i64 0, i64 %198
  %200 = load i32, ptr %199, align 4, !tbaa !24
  %201 = sext i32 %200 to i64
  %202 = udiv i64 %201, 4
  %203 = load ptr, ptr %19, align 8, !tbaa !62
  %204 = getelementptr inbounds nuw float, ptr %203, i64 %202
  store ptr %204, ptr %19, align 8, !tbaa !62
  %205 = load i32, ptr %18, align 4, !tbaa !24
  %206 = load ptr, ptr %20, align 8, !tbaa !62
  %207 = sext i32 %205 to i64
  %208 = getelementptr inbounds float, ptr %206, i64 %207
  store ptr %208, ptr %20, align 8, !tbaa !62
  %209 = load ptr, ptr %13, align 8, !tbaa !32
  %210 = getelementptr inbounds nuw %struct.AVFrame, ptr %209, i32 0, i32 1
  %211 = load i32, ptr %14, align 4, !tbaa !24
  %212 = sext i32 %211 to i64
  %213 = getelementptr inbounds [8 x i32], ptr %210, i64 0, i64 %212
  %214 = load i32, ptr %213, align 4, !tbaa !24
  %215 = sext i32 %214 to i64
  %216 = udiv i64 %215, 4
  %217 = load ptr, ptr %21, align 8, !tbaa !62
  %218 = getelementptr inbounds nuw float, ptr %217, i64 %216
  store ptr %218, ptr %21, align 8, !tbaa !62
  br label %219

219:                                              ; preds = %194
  %220 = load i32, ptr %22, align 4, !tbaa !24
  %221 = add nsw i32 %220, 1
  store i32 %221, ptr %22, align 4, !tbaa !24
  br label %156, !llvm.loop !83

222:                                              ; preds = %160
  store i32 0, ptr %15, align 4
  br label %223

223:                                              ; preds = %222, %130
  call void @llvm.lifetime.end.p0(i64 8, ptr %21) #7
  call void @llvm.lifetime.end.p0(i64 8, ptr %20) #7
  call void @llvm.lifetime.end.p0(i64 8, ptr %19) #7
  call void @llvm.lifetime.end.p0(i64 4, ptr %18) #7
  call void @llvm.lifetime.end.p0(i64 4, ptr %17) #7
  call void @llvm.lifetime.end.p0(i64 4, ptr %16) #7
  %224 = load i32, ptr %15, align 4
  switch i32 %224, label %230 [
    i32 0, label %225
    i32 4, label %226
  ]

225:                                              ; preds = %223
  br label %226

226:                                              ; preds = %225, %223
  %227 = load i32, ptr %14, align 4, !tbaa !24
  %228 = add nsw i32 %227, 1
  store i32 %228, ptr %14, align 4, !tbaa !24
  br label %38, !llvm.loop !84

229:                                              ; preds = %44
  store i32 1, ptr %15, align 4
  call void @llvm.lifetime.end.p0(i64 8, ptr %13) #7
  call void @llvm.lifetime.end.p0(i64 8, ptr %12) #7
  call void @llvm.lifetime.end.p0(i64 8, ptr %11) #7
  call void @llvm.lifetime.end.p0(i64 4, ptr %10) #7
  call void @llvm.lifetime.end.p0(i64 8, ptr %9) #7
  ret i32 0

230:                                              ; preds = %223
  unreachable
}